target datalayout = "e-m:e-p270:32:32-p271:32:32-p272:64:64-i64:64-i128:128-f80:128-n8:16:32:64-S128"
target triple = "x86_64-pc-linux-gnu"

%struct.BlockConf = type { ptr, i32, i32, i32, i32, i32, i32, i32, i32, i32, i32, i32, i32, i32, i32, i8, i32, i32, i32, i32 }

; Function Attrs: nounwind sspstrong uwtable
define dso_local zeroext i1 @blkconf_apply_backend_options(ptr noundef %0, i1 noundef zeroext %1, i1 noundef zeroext %2, ptr noundef %3) #0 {
  %5 = alloca i1, align 1
  %6 = alloca ptr, align 8
  %7 = alloca i8, align 1
  %8 = alloca i8, align 1
  %9 = alloca ptr, align 8
  %10 = alloca ptr, align 8
  %11 = alloca i32, align 4
  %12 = alloca i32, align 4
  %13 = alloca i64, align 8
  %14 = alloca i64, align 8
  %15 = alloca i8, align 1
  %16 = alloca i32, align 4
  %17 = alloca i32, align 4
  store ptr %0, ptr %6, align 8
  %18 = zext i1 %1 to i8
  store i8 %18, ptr %7, align 1
  %19 = zext i1 %2 to i8
  store i8 %19, ptr %8, align 1
  store ptr %3, ptr %9, align 8
  call void @llvm.lifetime.start.p0(i64 8, ptr %10) #6
  %20 = load ptr, ptr %6, align 8
  %21 = getelementptr inbounds nuw %struct.BlockConf, ptr %20, i32 0, i32 0
  %22 = load ptr, ptr %21, align 8
  store ptr %22, ptr %10, align 8
  call void @llvm.lifetime.start.p0(i64 4, ptr %11) #6
  store i32 0, ptr %11, align 4, !annotation !4
  call void @llvm.lifetime.start.p0(i64 4, ptr %12) #6
  store i32 0, ptr %12, align 4, !annotation !4
  call void @llvm.lifetime.start.p0(i64 8, ptr %13) #6
  store i64 0, ptr %13, align 8, !annotation !4
  call void @llvm.lifetime.start.p0(i64 8, ptr %14) #6
  store i64 0, ptr %14, align 8, !annotation !4
  call void @llvm.lifetime.start.p0(i64 1, ptr %15) #6
  store i8 0, ptr %15, align 1, !annotation !4
  call void @llvm.lifetime.start.p0(i64 4, ptr %16) #6
  store i32 0, ptr %16, align 4, !annotation !4
  store i64 1, ptr %13, align 8
  %23 = load i8, ptr %7, align 1, !range !5, !noundef !6
  %24 = trunc i8 %23 to i1
  br i1 %24, label %28, label %25

25:                                               ; preds = %4
  %26 = load i64, ptr %13, align 8
  %27 = or i64 %26, 2
  store i64 %27, ptr %13, align 8
  br label %28

28:                                               ; preds = %25, %4
  store i64 5, ptr %14, align 8
  %29 = load i8, ptr %8, align 1, !range !5, !noundef !6
  %30 = trunc i8 %29 to i1
  br i1 %30, label %31, label %34

31:                                               ; preds = %28
  %32 = load i64, ptr %14, align 8
  %33 = or i64 %32, 8
  store i64 %33, ptr %14, align 8
  br label %34

34:                                               ; preds = %31, %28
  %35 = load ptr, ptr %6, align 8
  %36 = getelementptr inbounds nuw %struct.BlockConf, ptr %35, i32 0, i32 15
  %37 = load i8, ptr %36, align 8, !range !5, !noundef !6
  %38 = trunc i8 %37 to i1
  br i1 %38, label %39, label %42

39:                                               ; preds = %34
  %40 = load i64, ptr %14, align 8
  %41 = or i64 %40, 2
  store i64 %41, ptr %14, align 8
  br label %42

42:                                               ; preds = %39, %34
  %43 = load ptr, ptr %10, align 8
  %44 = load i64, ptr %13, align 8
  %45 = load i64, ptr %14, align 8
  %46 = load ptr, ptr %9, align 8
  %47 = call i32 @blk_set_perm(ptr noundef %43, i64 noundef %44, i64 noundef %45, ptr noundef %46)
  store i32 %47, ptr %16, align 4
  %48 = load i32, ptr %16, align 4
  %49 = icmp slt i32 %48, 0
  br i1 %49, label %50, label %51

50:                                               ; preds = %42
  store i1 false, ptr %5, align 1
  store i32 1, ptr %17, align 4
  br label %95

51:                                               ; preds = %42
  %52 = load ptr, ptr %6, align 8
  %53 = getelementptr inbounds nuw %struct.BlockConf, ptr %52, i32 0, i32 14
  %54 = load i32, ptr %53, align 4
  switch i32 %54, label %61 [
    i32 1, label %55
    i32 2, label %56
    i32 0, label %57
  ]

55:                                               ; preds = %51
  store i8 1, ptr %15, align 1
  br label %62

56:                                               ; preds = %51
  store i8 0, ptr %15, align 1
  br label %62

57:                                               ; preds = %51
  %58 = load ptr, ptr %10, align 8
  %59 = call zeroext i1 @blk_enable_write_cache(ptr noundef %58)
  %60 = zext i1 %59 to i8
  store i8 %60, ptr %15, align 1
  br label %62

61:                                               ; preds = %51
  call void @abort() #7
  unreachable

62:                                               ; preds = %57, %56, %55
  %63 = load ptr, ptr %6, align 8
  %64 = getelementptr inbounds nuw %struct.BlockConf, ptr %63, i32 0, i32 18
  %65 = load i32, ptr %64, align 4
  store i32 %65, ptr %11, align 4
  %66 = load i32, ptr %11, align 4
  %67 = icmp eq i32 %66, 4
  br i1 %67, label %68, label %71

68:                                               ; preds = %62
  %69 = load ptr, ptr %10, align 8
  %70 = call i32 @blk_get_on_error(ptr noundef %69, i1 noundef zeroext true)
  store i32 %70, ptr %11, align 4
  br label %71

71:                                               ; preds = %68, %62
  %72 = load ptr, ptr %6, align 8
  %73 = getelementptr inbounds nuw %struct.BlockConf, ptr %72, i32 0, i32 19
  %74 = load i32, ptr %73, align 8
  store i32 %74, ptr %12, align 4
  %75 = load i32, ptr %12, align 4
  %76 = icmp eq i32 %75, 4
  br i1 %76, label %77, label %80

77:                                               ; preds = %71
  %78 = load ptr, ptr %10, align 8
  %79 = call i32 @blk_get_on_error(ptr noundef %78, i1 noundef zeroext false)
  store i32 %79, ptr %12, align 4
  br label %80

80:                                               ; preds = %77, %71
  %81 = load ptr, ptr %10, align 8
  %82 = load i8, ptr %15, align 1, !range !5, !noundef !6
  %83 = trunc i8 %82 to i1
  call void @blk_set_enable_write_cache(ptr noundef %81, i1 noundef zeroext %83)
  %84 = load ptr, ptr %10, align 8
  %85 = load i32, ptr %11, align 4
  %86 = load i32, ptr %12, align 4
  call void @blk_set_on_error(ptr noundef %84, i32 noundef %85, i32 noundef %86)
  %87 = load ptr, ptr %10, align 8
  %88 = call ptr @blk_get_stats(ptr noundef %87)
  %89 = load ptr, ptr %6, align 8
  %90 = getelementptr inbounds nuw %struct.BlockConf, ptr %89, i32 0, i32 16
  %91 = load i32, ptr %90, align 4
  %92 = load ptr, ptr %6, align 8
  %93 = getelementptr inbounds nuw %struct.BlockConf, ptr %92, i32 0, i32 17
  %94 = load i32, ptr %93, align 8
  call void @block_acct_setup(ptr noundef %88, i32 noundef %91, i32 noundef %94)
  store i1 true, ptr %5, align 1
  store i32 1, ptr %17, align 4
  br label %95

95:                                               ; preds = %80, %50
  call void @llvm.lifetime.end.p0(i64 4, ptr %16) #6
  call void @llvm.lifetime.end.p0(i64 1, ptr %15) #6
  call void @llvm.lifetime.end.p0(i64 8, ptr %14) #6
  call void @llvm.lifetime.end.p0(i64 8, ptr %13) #6
  call void @llvm.lifetime.end.p0(i64 4, ptr %12) #6
  call void @llvm.lifetime.end.p0(i64 4, ptr %11) #6
  call void @llvm.lifetime.end.p0(i64 8, ptr %10) #6
  %96 = load i1, ptr %5, align 1
  ret i1 %96
}