; Function Attrs: nounwind sspstrong uwtable
define dso_local noundef zeroext i1 @blkconf_apply_backend_options(ptr noundef readonly captures(none) %0, i1 noundef zeroext %1, i1 noundef zeroext %2, ptr noundef %3) local_unnamed_addr #0 {
  %5 = load ptr, ptr %0, align 8
  %spec.select = select i1 %1, i64 1, i64 3
  %.028 = select i1 %2, i64 13, i64 5
  %6 = getelementptr inbounds nuw i8, ptr %0, i64 64
  %7 = load i8, ptr %6, align 8, !range !5, !noundef !6
  %8 = trunc nuw i8 %7 to i1
  %9 = or disjoint i64 %.028, 2
  %.1 = select i1 %8, i64 %9, i64 %.028
  %10 = tail call i32 @blk_set_perm(ptr noundef %5, i64 noundef %spec.select, i64 noundef %.1, ptr noundef %3) #6
  %11 = icmp sgt i32 %10, -1
  br i1 %11, label %12, label %37

12:                                               ; preds = %4
  %13 = getelementptr inbounds nuw i8, ptr %0, i64 60
  %14 = load i32, ptr %13, align 4
  switch i32 %14, label %18 [
    i32 1, label %19
    i32 2, label %15
    i32 0, label %16
  ]

15:                                               ; preds = %12
  br label %19

16:                                               ; preds = %12
  %17 = tail call zeroext i1 @blk_enable_write_cache(ptr noundef %5) #6
  br label %19

18:                                               ; preds = %12
  tail call void @abort() #7
  unreachable

19:                                               ; preds = %12, %16, %15
  %.0 = phi i1 [ %17, %16 ], [ false, %15 ], [ true, %12 ]
  %20 = getelementptr inbounds nuw i8, ptr %0, i64 76
  %21 = load i32, ptr %20, align 4
  %22 = icmp eq i32 %21, 4
  br i1 %22, label %23, label %25

23:                                               ; preds = %19
  %24 = tail call i32 @blk_get_on_error(ptr noundef %5, i1 noundef zeroext true) #6
  br label %25

25:                                               ; preds = %23, %19
  %.031 = phi i32 [ %24, %23 ], [ %21, %19 ]
  %26 = getelementptr inbounds nuw i8, ptr %0, i64 80
  %27 = load i32, ptr %26, align 8
  %28 = icmp eq i32 %27, 4
  br i1 %28, label %29, label %31

29:                                               ; preds = %25
  %30 = tail call i32 @blk_get_on_error(ptr noundef %5, i1 noundef zeroext false) #6
  br label %31

31:                                               ; preds = %29, %25
  %.030 = phi i32 [ %30, %29 ], [ %27, %25 ]
  tail call void @blk_set_enable_write_cache(ptr noundef %5, i1 noundef zeroext %.0) #6
  tail call void @blk_set_on_error(ptr noundef %5, i32 noundef %.031, i32 noundef %.030) #6
  %32 = tail call ptr @blk_get_stats(ptr noundef %5) #6
  %33 = getelementptr inbounds nuw i8, ptr %0, i64 68
  %34 = load i32, ptr %33, align 4
  %35 = getelementptr inbounds nuw i8, ptr %0, i64 72
  %36 = load i32, ptr %35, align 8
  tail call void @block_acct_setup(ptr noundef %32, i32 noundef %34, i32 noundef %36) #6
  br label %37

37:                                               ; preds = %4, %31
  ret i1 %11
}